target datalayout = "e-m:e-p270:32:32-p271:32:32-p272:64:64-i64:64-i128:128-f80:128-n8:16:32:64-S128"
target triple = "x86_64-pc-linux-gnu"

%"class.ade::MemoryDescriptorView" = type { ptr, ptr, %"struct.ade::util::DynMdSpan", i32, %"class.std::shared_ptr" }
%"struct.ade::util::DynMdSpan" = type { %"struct.std::array", i64 }
%"struct.std::array" = type { [6 x %"struct.ade::util::Span"] }
%"struct.ade::util::Span" = type { i32, i32 }
%"class.std::shared_ptr" = type { %"class.std::__shared_ptr" }
%"class.std::__shared_ptr" = type { ptr, %"class.std::__shared_count" }
%"class.std::__shared_count" = type { ptr }
%"struct.std::_List_iterator" = type { ptr }

; Function Attrs: mustprogress uwtable
define hidden noundef ptr @_ZN3ade20MemoryDescriptorView13getDescriptorEv(ptr noundef nonnull align 8 dereferenceable(96) %0) #1 align 2 {
  %2 = alloca ptr, align 8
  %3 = alloca ptr, align 8
  store ptr %0, ptr %3, align 8, !tbaa !3
  %4 = load ptr, ptr %3, align 8
  %5 = getelementptr inbounds nuw %"class.ade::MemoryDescriptorView", ptr %4, i32 0, i32 1
  %6 = load ptr, ptr %5, align 8, !tbaa !20
  %7 = icmp ne ptr null, %6
  br i1 %7, label %8, label %12

8:                                                ; preds = %1
  %9 = getelementptr inbounds nuw %"class.ade::MemoryDescriptorView", ptr %4, i32 0, i32 1
  %10 = load ptr, ptr %9, align 8, !tbaa !20
  %11 = call noundef ptr @_ZN3ade20MemoryDescriptorView13getDescriptorEv(ptr noundef nonnull align 8 dereferenceable(96) %10)
  store ptr %11, ptr %2, align 8
  br label %15

12:                                               ; preds = %1
  %13 = getelementptr inbounds nuw %"class.ade::MemoryDescriptorView", ptr %4, i32 0, i32 0
  %14 = load ptr, ptr %13, align 8, !tbaa !8
  store ptr %14, ptr %2, align 8
  br label %15

15:                                               ; preds = %12, %8
  %16 = load ptr, ptr %2, align 8
  ret ptr %16
}

; Function Attrs: mustprogress uwtable
define hidden void @_ZN3ade20MemoryDescriptorView6commitESt14_List_iteratorINS_14MemoryAccessor12SavedHandlesEE(ptr noundef nonnull align 8 dereferenceable(96) %0, ptr %1) #1 align 2 {
  %3 = alloca %"struct.std::_List_iterator", align 8
  %4 = alloca ptr, align 8
  %5 = alloca i8, align 1
  %6 = alloca %"struct.std::_List_iterator", align 8
  %7 = getelementptr inbounds nuw %"struct.std::_List_iterator", ptr %3, i32 0, i32 0
  store ptr %1, ptr %7, align 8
  store ptr %0, ptr %4, align 8, !tbaa !3
  %8 = load ptr, ptr %4, align 8
  br label %9

9:                                                ; preds = %2
  call void @llvm.lifetime.start.p0(i64 1, ptr %5) #19
  store i8 0, ptr %5, align 1, !tbaa !34
  call void @llvm.lifetime.end.p0(i64 1, ptr %5) #19
  br label %10

10:                                               ; preds = %9
  %11 = call noundef ptr @_ZN3ade20MemoryDescriptorView13getDescriptorEv(ptr noundef nonnull align 8 dereferenceable(96) %8)
  call void @llvm.memcpy.p0.p0.i64(ptr align 8 %6, ptr align 8 %3, i64 8, i1 false), !tbaa.struct !97
  %12 = getelementptr inbounds nuw %"struct.std::_List_iterator", ptr %6, i32 0, i32 0
  %13 = load ptr, ptr %12, align 8
  call void @_ZN3ade16MemoryDescriptor6commitESt14_List_iteratorINS_14MemoryAccessor12SavedHandlesEE(ptr noundef nonnull align 8 dereferenceable(264) %11, ptr %13)
  ret void
}