; Function Attrs: mustprogress uwtable
define hidden void @_ZN3ade20MemoryDescriptorView6commitESt14_List_iteratorINS_14MemoryAccessor12SavedHandlesEE(ptr noundef nonnull readonly align 8 captures(none) dereferenceable(96) %0, ptr %1) local_unnamed_addr #1 align 2 {
  br label %tailrecurse.i

tailrecurse.i:                                    ; preds = %tailrecurse.i, %2
  %.tr.i = phi ptr [ %0, %2 ], [ %4, %tailrecurse.i ]
  %3 = getelementptr inbounds nuw i8, ptr %.tr.i, i64 8
  %4 = load ptr, ptr %3, align 8, !tbaa !20
  %.not.i = icmp eq ptr %4, null
  br i1 %.not.i, label %_ZN3ade20MemoryDescriptorView13getDescriptorEv.exit, label %tailrecurse.i

_ZN3ade20MemoryDescriptorView13getDescriptorEv.exit: ; preds = %tailrecurse.i
  %5 = load ptr, ptr %.tr.i, align 8, !tbaa !19
  tail call void @_ZN3ade16MemoryDescriptor6commitESt14_List_iteratorINS_14MemoryAccessor12SavedHandlesEE(ptr noundef nonnull align 8 dereferenceable(264) %5, ptr %1)
  ret void
}